target datalayout = "e-m:e-p270:32:32-p271:32:32-p272:64:64-i64:64-i128:128-f80:128-n8:16:32:64-S128"
target triple = "x86_64-pc-linux-gnu"

%"class.lean::object_ref" = type { ptr }
%struct.lean_object = type { i32, i32 }
%struct.lean_ctor_object = type { %struct.lean_object, [0 x ptr] }

@_ZN4leanL7g_unboxE = internal global ptr null, align 8

; Function Attrs: inlinehint mustprogress nounwind uwtable
define internal noundef zeroext i8 @_ZL12lean_ptr_tagP11lean_object(ptr noundef %0) #6 {
  %2 = alloca ptr, align 8
  store ptr %0, ptr %2, align 8, !tbaa !146
  %3 = load ptr, ptr %2, align 8, !tbaa !146
  %4 = getelementptr inbounds nuw %struct.lean_object, ptr %3, i32 0, i32 1
  %5 = load i32, ptr %4, align 4
  %6 = lshr i32 %5, 24
  %7 = trunc i32 %6 to i8
  ret i8 %7
}

; Function Attrs: alwaysinline mustprogress nounwind uwtable
define internal noundef zeroext i1 @_ZL14lean_is_scalarP11lean_object(ptr noundef %0) #10 {
  %2 = alloca ptr, align 8
  store ptr %0, ptr %2, align 8, !tbaa !146
  %3 = load ptr, ptr %2, align 8, !tbaa !146
  %4 = ptrtoint ptr %3 to i64
  %5 = and i64 %4, 1
  %6 = icmp eq i64 %5, 1
  ret i1 %6
}

; Function Attrs: inlinehint mustprogress nounwind uwtable
define internal noundef ptr @_ZL18lean_ctor_obj_cptrP11lean_object(ptr noundef %0) #6 {
  %2 = alloca ptr, align 8
  store ptr %0, ptr %2, align 8, !tbaa !146
  %3 = load ptr, ptr %2, align 8, !tbaa !146
  %4 = call noundef ptr @_ZL12lean_to_ctorP11lean_object(ptr noundef %3)
  %5 = getelementptr inbounds nuw %struct.lean_ctor_object, ptr %4, i32 0, i32 1
  %6 = getelementptr inbounds [0 x ptr], ptr %5, i64 0, i64 0
  ret ptr %6
}

; Function Attrs: inlinehint mustprogress uwtable
define linkonce_odr hidden noundef i32 @_ZN4lean9cnstr_tagEP11lean_object(ptr noundef %0) #1 comdat {
  %2 = alloca ptr, align 8
  store ptr %0, ptr %2, align 8, !tbaa !146
  %3 = load ptr, ptr %2, align 8, !tbaa !146
  %4 = call noundef zeroext i8 @_ZL12lean_ptr_tagP11lean_object(ptr noundef %3)
  %5 = zext i8 %4 to i32
  ret i32 %5
}

; Function Attrs: inlinehint mustprogress uwtable
define internal noundef i32 @_ZL12lean_obj_tagP11lean_object(ptr noundef %0) #1 {
  %2 = alloca i32, align 4
  %3 = alloca ptr, align 8
  store ptr %0, ptr %3, align 8, !tbaa !146
  %4 = load ptr, ptr %3, align 8, !tbaa !146
  %5 = call noundef zeroext i1 @_ZL14lean_is_scalarP11lean_object(ptr noundef %4)
  br i1 %5, label %6, label %10

6:                                                ; preds = %1
  %7 = load ptr, ptr %3, align 8, !tbaa !146
  %8 = call noundef i64 @_ZL10lean_unboxP11lean_object(ptr noundef %7)
  %9 = trunc i64 %8 to i32
  store i32 %9, ptr %2, align 4
  br label %14

10:                                               ; preds = %1
  %11 = load ptr, ptr %3, align 8, !tbaa !146
  %12 = call noundef zeroext i8 @_ZL12lean_ptr_tagP11lean_object(ptr noundef %11)
  %13 = zext i8 %12 to i32
  store i32 %13, ptr %2, align 4
  br label %14

14:                                               ; preds = %10, %6
  %15 = load i32, ptr %2, align 4
  ret i32 %15
}

; Function Attrs: inlinehint mustprogress uwtable
define internal noundef ptr @_ZL13lean_ctor_getP11lean_objectj(ptr noundef %0, i32 noundef %1) #1 {
  %3 = alloca ptr, align 8
  %4 = alloca i32, align 4
  store ptr %0, ptr %3, align 8, !tbaa !146
  store i32 %1, ptr %4, align 4, !tbaa !10
  %5 = load ptr, ptr %3, align 8, !tbaa !146
  %6 = call noundef ptr @_ZL18lean_ctor_obj_cptrP11lean_object(ptr noundef %5)
  %7 = load i32, ptr %4, align 4, !tbaa !10
  %8 = zext i32 %7 to i64
  %9 = getelementptr inbounds nuw ptr, ptr %6, i64 %8
  %10 = load ptr, ptr %9, align 8, !tbaa !146
  ret ptr %10
}

; Function Attrs: inlinehint mustprogress nounwind uwtable
define internal noundef ptr @_ZL12lean_to_ctorP11lean_object(ptr noundef %0) #6 {
  %2 = alloca ptr, align 8
  store ptr %0, ptr %2, align 8, !tbaa !146
  %3 = load ptr, ptr %2, align 8, !tbaa !146
  ret ptr %3
}

; Function Attrs: mustprogress uwtable
define linkonce_odr hidden noundef i32 @_ZN4lean4expr4kindEP11lean_object(ptr noundef %0) #0 comdat align 2 {
  %2 = alloca ptr, align 8
  store ptr %0, ptr %2, align 8, !tbaa !146
  %3 = load ptr, ptr %2, align 8, !tbaa !146
  %4 = call noundef i32 @_ZN4lean9cnstr_tagEP11lean_object(ptr noundef %3)
  ret i32 %4
}

; Function Attrs: inlinehint mustprogress nounwind uwtable
define internal noundef i64 @_ZL10lean_unboxP11lean_object(ptr noundef %0) #6 {
  %2 = alloca ptr, align 8
  store ptr %0, ptr %2, align 8, !tbaa !146
  %3 = load ptr, ptr %2, align 8, !tbaa !146
  %4 = ptrtoint ptr %3 to i64
  %5 = lshr i64 %4, 1
  ret i64 %5
}

; Function Attrs: mustprogress uwtable
define linkonce_odr hidden noundef zeroext i1 @_ZN4lean4name2eqEP11lean_objectS2_(ptr noundef %0, ptr noundef %1) #0 comdat align 2 {
  %3 = alloca ptr, align 8
  %4 = alloca ptr, align 8
  store ptr %0, ptr %3, align 8, !tbaa !146
  store ptr %1, ptr %4, align 8, !tbaa !146
  %5 = load ptr, ptr %3, align 8, !tbaa !146
  %6 = load ptr, ptr %4, align 8, !tbaa !146
  %7 = call zeroext i8 @lean_name_eq(ptr noundef %5, ptr noundef %6)
  %8 = icmp ne i8 %7, 0
  ret i1 %8
}

; Function Attrs: inlinehint mustprogress uwtable
define linkonce_odr hidden noundef i32 @_ZN4lean7obj_tagEP11lean_object(ptr noundef %0) #1 comdat {
  %2 = alloca ptr, align 8
  store ptr %0, ptr %2, align 8, !tbaa !146
  %3 = load ptr, ptr %2, align 8, !tbaa !146
  %4 = call noundef i32 @_ZL12lean_obj_tagP11lean_object(ptr noundef %3)
  ret i32 %4
}

; Function Attrs: inlinehint mustprogress uwtable
define linkonce_odr hidden noundef ptr @_ZN4lean9cnstr_getEP11lean_objectj(ptr noundef %0, i32 noundef %1) #1 comdat {
  %3 = alloca ptr, align 8
  %4 = alloca i32, align 4
  store ptr %0, ptr %3, align 8, !tbaa !146
  store i32 %1, ptr %4, align 4, !tbaa !10
  %5 = load ptr, ptr %3, align 8, !tbaa !146
  %6 = load i32, ptr %4, align 4, !tbaa !10
  %7 = call noundef ptr @_ZL13lean_ctor_getP11lean_objectj(ptr noundef %5, i32 noundef %6)
  ret ptr %7
}

; Function Attrs: inlinehint mustprogress uwtable
define linkonce_odr hidden noundef nonnull align 8 dereferenceable(8) ptr @_ZN4lean13cnstr_get_refEP11lean_objectj(ptr noundef %0, i32 noundef %1) #1 comdat {
  %3 = alloca ptr, align 8
  %4 = alloca i32, align 4
  store ptr %0, ptr %3, align 8, !tbaa !146
  store i32 %1, ptr %4, align 4, !tbaa !10
  %5 = load ptr, ptr %3, align 8, !tbaa !146
  %6 = call noundef ptr @_ZL12lean_to_ctorP11lean_object(ptr noundef %5)
  %7 = getelementptr inbounds nuw %struct.lean_ctor_object, ptr %6, i32 0, i32 1
  %8 = getelementptr inbounds [0 x ptr], ptr %7, i64 0, i64 0
  %9 = load i32, ptr %4, align 4, !tbaa !10
  %10 = zext i32 %9 to i64
  %11 = getelementptr inbounds nuw %"class.lean::object_ref", ptr %8, i64 %10
  ret ptr %11
}

; Function Attrs: mustprogress uwtable
define linkonce_odr hidden noundef i32 @_ZNK4lean4expr4kindEv(ptr noundef nonnull align 8 dereferenceable(8) %0) #0 comdat align 2 {
  %2 = alloca ptr, align 8
  store ptr %0, ptr %2, align 8, !tbaa !3
  %3 = load ptr, ptr %2, align 8
  %4 = call noundef ptr @_ZNK4lean10object_ref3rawEv(ptr noundef nonnull align 8 dereferenceable(8) %3)
  %5 = call noundef i32 @_ZN4lean4expr4kindEP11lean_object(ptr noundef %4)
  ret i32 %5
}

; Function Attrs: inlinehint mustprogress nounwind uwtable
define linkonce_odr hidden noundef i64 @_ZN4lean5unboxEP11lean_object(ptr noundef %0) #6 comdat {
  %2 = alloca ptr, align 8
  store ptr %0, ptr %2, align 8, !tbaa !146
  %3 = load ptr, ptr %2, align 8, !tbaa !146
  %4 = call noundef i64 @_ZL10lean_unboxP11lean_object(ptr noundef %3)
  ret i64 %4
}

; Function Attrs: mustprogress uwtable
define linkonce_odr hidden noundef nonnull align 8 dereferenceable(8) ptr @_ZN4lean4name11get_numeralEP11lean_object(ptr noundef %0) #0 comdat align 2 {
  %2 = alloca ptr, align 8
  store ptr %0, ptr %2, align 8, !tbaa !146
  %3 = load ptr, ptr %2, align 8, !tbaa !146
  %4 = call noundef nonnull align 8 dereferenceable(8) ptr @_ZN4lean13cnstr_get_refEP11lean_objectj(ptr noundef %3, i32 noundef 1)
  ret ptr %4
}

; Function Attrs: mustprogress uwtable
define linkonce_odr hidden noundef zeroext i1 @_ZN4leaneqERKNS_4nameES2_(ptr noundef nonnull align 8 dereferenceable(8) %0, ptr noundef nonnull align 8 dereferenceable(8) %1) #0 comdat {
  %3 = alloca ptr, align 8
  %4 = alloca ptr, align 8
  store ptr %0, ptr %3, align 8, !tbaa !8
  store ptr %1, ptr %4, align 8, !tbaa !8
  %5 = load ptr, ptr %3, align 8, !tbaa !8
  %6 = call noundef ptr @_ZNK4lean10object_ref3rawEv(ptr noundef nonnull align 8 dereferenceable(8) %5)
  %7 = load ptr, ptr %4, align 8, !tbaa !8
  %8 = call noundef ptr @_ZNK4lean10object_ref3rawEv(ptr noundef nonnull align 8 dereferenceable(8) %7)
  %9 = call noundef zeroext i1 @_ZN4lean4name2eqEP11lean_objectS2_(ptr noundef %6, ptr noundef %8)
  ret i1 %9
}

; Function Attrs: mustprogress uwtable
define linkonce_odr hidden noundef i32 @_ZNK4lean4name4kindEv(ptr noundef nonnull align 8 dereferenceable(8) %0) #0 comdat align 2 {
  %2 = alloca ptr, align 8
  store ptr %0, ptr %2, align 8, !tbaa !8
  %3 = load ptr, ptr %2, align 8
  %4 = call noundef ptr @_ZNK4lean10object_ref3rawEv(ptr noundef nonnull align 8 dereferenceable(8) %3)
  %5 = call noundef i32 @_ZN4lean4name4kindEP11lean_object(ptr noundef %4)
  ret i32 %5
}

; Function Attrs: mustprogress uwtable
define linkonce_odr hidden noundef i32 @_ZN4lean4name4kindEP11lean_object(ptr noundef %0) #0 comdat align 2 {
  %2 = alloca ptr, align 8
  store ptr %0, ptr %2, align 8, !tbaa !146
  %3 = load ptr, ptr %2, align 8, !tbaa !146
  %4 = call noundef i32 @_ZN4lean7obj_tagEP11lean_object(ptr noundef %3)
  ret i32 %4
}

; Function Attrs: mustprogress uwtable
define linkonce_odr hidden noundef ptr @_ZN4lean4name10get_prefixEP11lean_object(ptr noundef %0) #0 comdat align 2 {
  %2 = alloca ptr, align 8
  store ptr %0, ptr %2, align 8, !tbaa !146
  %3 = load ptr, ptr %2, align 8, !tbaa !146
  %4 = call noundef ptr @_ZN4lean9cnstr_getEP11lean_objectj(ptr noundef %3, i32 noundef 0)
  ret ptr %4
}

; Function Attrs: mustprogress nounwind uwtable
define linkonce_odr hidden noundef ptr @_ZNK4lean10object_ref3rawEv(ptr noundef nonnull align 8 dereferenceable(8) %0) #4 comdat align 2 {
  %2 = alloca ptr, align 8
  store ptr %0, ptr %2, align 8, !tbaa !147
  %3 = load ptr, ptr %2, align 8
  %4 = getelementptr inbounds nuw %"class.lean::object_ref", ptr %3, i32 0, i32 0
  %5 = load ptr, ptr %4, align 8, !tbaa !149
  ret ptr %5
}

; Function Attrs: mustprogress uwtable
define linkonce_odr hidden noundef zeroext i1 @_ZNK4lean4name12is_anonymousEv(ptr noundef nonnull align 8 dereferenceable(8) %0) #0 comdat align 2 {
  %2 = alloca ptr, align 8
  store ptr %0, ptr %2, align 8, !tbaa !8
  %3 = load ptr, ptr %2, align 8
  %4 = call noundef i32 @_ZNK4lean4name4kindEv(ptr noundef nonnull align 8 dereferenceable(8) %3)
  %5 = icmp eq i32 %4, 0
  ret i1 %5
}

; Function Attrs: inlinehint mustprogress uwtable
define linkonce_odr hidden noundef nonnull align 8 dereferenceable(8) ptr @_ZN4lean13cnstr_get_refERKNS_10object_refEj(ptr noundef nonnull align 8 dereferenceable(8) %0, i32 noundef %1) #1 comdat {
  %3 = alloca ptr, align 8
  %4 = alloca i32, align 4
  store ptr %0, ptr %3, align 8, !tbaa !147
  store i32 %1, ptr %4, align 4, !tbaa !10
  %5 = load ptr, ptr %3, align 8, !tbaa !147
  %6 = call noundef ptr @_ZNK4lean10object_ref3rawEv(ptr noundef nonnull align 8 dereferenceable(8) %5)
  %7 = load i32, ptr %4, align 4, !tbaa !10
  %8 = call noundef nonnull align 8 dereferenceable(8) ptr @_ZN4lean13cnstr_get_refEP11lean_objectj(ptr noundef %6, i32 noundef %7)
  ret ptr %8
}

; Function Attrs: inlinehint mustprogress uwtable
define linkonce_odr hidden noundef zeroext i1 @_ZN4lean8is_constERKNS_4exprE(ptr noundef nonnull align 8 dereferenceable(8) %0) #1 comdat {
  %2 = alloca ptr, align 8
  store ptr %0, ptr %2, align 8, !tbaa !3
  %3 = load ptr, ptr %2, align 8, !tbaa !3
  %4 = call noundef i32 @_ZNK4lean4expr4kindEv(ptr noundef nonnull align 8 dereferenceable(8) %3)
  %5 = icmp eq i32 %4, 4
  ret i1 %5
}

; Function Attrs: mustprogress uwtable
define linkonce_odr hidden noundef i64 @_ZNK4lean3nat15get_small_valueEv(ptr noundef nonnull align 8 dereferenceable(8) %0) #0 comdat align 2 {
  %2 = alloca ptr, align 8
  store ptr %0, ptr %2, align 8, !tbaa !16
  %3 = load ptr, ptr %2, align 8
  %4 = call noundef ptr @_ZNK4lean10object_ref3rawEv(ptr noundef nonnull align 8 dereferenceable(8) %3)
  %5 = call noundef i64 @_ZN4lean5unboxEP11lean_object(ptr noundef %4)
  ret i64 %5
}

; Function Attrs: mustprogress uwtable
define linkonce_odr hidden noundef nonnull align 8 dereferenceable(8) ptr @_ZNK4lean4name11get_numeralEv(ptr noundef nonnull align 8 dereferenceable(8) %0) #0 comdat align 2 {
  %2 = alloca ptr, align 8
  store ptr %0, ptr %2, align 8, !tbaa !8
  %3 = load ptr, ptr %2, align 8
  %4 = call noundef ptr @_ZNK4lean10object_ref3rawEv(ptr noundef nonnull align 8 dereferenceable(8) %3)
  %5 = call noundef nonnull align 8 dereferenceable(8) ptr @_ZN4lean4name11get_numeralEP11lean_object(ptr noundef %4)
  ret ptr %5
}

; Function Attrs: mustprogress uwtable
define linkonce_odr hidden noundef zeroext i1 @_ZN4leanneERKNS_4nameES2_(ptr noundef nonnull align 8 dereferenceable(8) %0, ptr noundef nonnull align 8 dereferenceable(8) %1) #0 comdat {
  %3 = alloca ptr, align 8
  %4 = alloca ptr, align 8
  store ptr %0, ptr %3, align 8, !tbaa !8
  store ptr %1, ptr %4, align 8, !tbaa !8
  %5 = load ptr, ptr %3, align 8, !tbaa !8
  %6 = load ptr, ptr %4, align 8, !tbaa !8
  %7 = call noundef zeroext i1 @_ZN4leaneqERKNS_4nameES2_(ptr noundef nonnull align 8 dereferenceable(8) %5, ptr noundef nonnull align 8 dereferenceable(8) %6)
  %8 = xor i1 %7, true
  ret i1 %8
}

; Function Attrs: mustprogress uwtable
define linkonce_odr hidden noundef nonnull align 8 dereferenceable(8) ptr @_ZNK4lean4name10get_prefixEv(ptr noundef nonnull align 8 dereferenceable(8) %0) #0 comdat align 2 {
  %2 = alloca ptr, align 8
  %3 = alloca ptr, align 8
  store ptr %0, ptr %3, align 8, !tbaa !8
  %4 = load ptr, ptr %3, align 8
  %5 = call noundef zeroext i1 @_ZNK4lean4name12is_anonymousEv(ptr noundef nonnull align 8 dereferenceable(8) %4)
  br i1 %5, label %6, label %7

6:                                                ; preds = %1
  store ptr %4, ptr %2, align 8
  br label %9

7:                                                ; preds = %1
  %8 = call noundef nonnull align 8 dereferenceable(8) ptr @_ZN4lean13cnstr_get_refERKNS_10object_refEj(ptr noundef nonnull align 8 dereferenceable(8) %4, i32 noundef 0)
  store ptr %8, ptr %2, align 8
  br label %9

9:                                                ; preds = %7, %6
  %10 = load ptr, ptr %2, align 8
  ret ptr %10
}

; Function Attrs: mustprogress uwtable
define linkonce_odr hidden noundef zeroext i1 @_ZNK4lean4name10is_numeralEv(ptr noundef nonnull align 8 dereferenceable(8) %0) #0 comdat align 2 {
  %2 = alloca ptr, align 8
  store ptr %0, ptr %2, align 8, !tbaa !8
  %3 = load ptr, ptr %2, align 8
  %4 = call noundef i32 @_ZNK4lean4name4kindEv(ptr noundef nonnull align 8 dereferenceable(8) %3)
  %5 = icmp eq i32 %4, 2
  ret i1 %5
}

; Function Attrs: mustprogress uwtable
define linkonce_odr hidden noundef zeroext i1 @_ZNK4lean4name9is_atomicEv(ptr noundef nonnull align 8 dereferenceable(8) %0) #0 comdat align 2 {
  %2 = alloca ptr, align 8
  store ptr %0, ptr %2, align 8, !tbaa !8
  %3 = load ptr, ptr %2, align 8
  %4 = call noundef zeroext i1 @_ZNK4lean4name12is_anonymousEv(ptr noundef nonnull align 8 dereferenceable(8) %3)
  br i1 %4, label %10, label %5

5:                                                ; preds = %1
  %6 = call noundef ptr @_ZNK4lean10object_ref3rawEv(ptr noundef nonnull align 8 dereferenceable(8) %3)
  %7 = call noundef ptr @_ZN4lean4name10get_prefixEP11lean_object(ptr noundef %6)
  %8 = call noundef i32 @_ZN4lean4name4kindEP11lean_object(ptr noundef %7)
  %9 = icmp eq i32 %8, 0
  br label %10

10:                                               ; preds = %5, %1
  %11 = phi i1 [ true, %1 ], [ %9, %5 ]
  ret i1 %11
}

; Function Attrs: inlinehint mustprogress uwtable
define linkonce_odr hidden noundef nonnull align 8 dereferenceable(8) ptr @_ZN4lean10const_nameERKNS_4exprE(ptr noundef nonnull align 8 dereferenceable(8) %0) #1 comdat {
  %2 = alloca ptr, align 8
  store ptr %0, ptr %2, align 8, !tbaa !3
  %3 = load ptr, ptr %2, align 8, !tbaa !3
  %4 = call noundef nonnull align 8 dereferenceable(8) ptr @_ZN4lean13cnstr_get_refERKNS_10object_refEj(ptr noundef nonnull align 8 dereferenceable(8) %3, i32 noundef 0)
  ret ptr %4
}

; Function Attrs: inlinehint mustprogress uwtable
define linkonce_odr hidden noundef zeroext i1 @_ZN4lean11is_constantERKNS_4exprE(ptr noundef nonnull align 8 dereferenceable(8) %0) #1 comdat {
  %2 = alloca ptr, align 8
  store ptr %0, ptr %2, align 8, !tbaa !3
  %3 = load ptr, ptr %2, align 8, !tbaa !3
  %4 = call noundef zeroext i1 @_ZN4lean8is_constERKNS_4exprE(ptr noundef nonnull align 8 dereferenceable(8) %3)
  ret i1 %4
}

; Function Attrs: mustprogress uwtable
define internal noundef zeroext i1 @_ZN4leanL23is_llnf_unary_primitiveERKNS_4exprERKNS_4nameERj(ptr noundef nonnull align 8 dereferenceable(8) %0, ptr noundef nonnull align 8 dereferenceable(8) %1, ptr noundef nonnull align 4 dereferenceable(4) %2) #0 {
  %4 = alloca i1, align 1
  %5 = alloca ptr, align 8
  %6 = alloca ptr, align 8
  %7 = alloca ptr, align 8
  %8 = alloca ptr, align 8
  %9 = alloca i32, align 4
  store ptr %0, ptr %5, align 8, !tbaa !3
  store ptr %1, ptr %6, align 8, !tbaa !8
  store ptr %2, ptr %7, align 8, !tbaa !14
  %10 = load ptr, ptr %5, align 8, !tbaa !3
  %11 = call noundef zeroext i1 @_ZN4lean11is_constantERKNS_4exprE(ptr noundef nonnull align 8 dereferenceable(8) %10)
  br i1 %11, label %13, label %12

12:                                               ; preds = %3
  store i1 false, ptr %4, align 1
  br label %37

13:                                               ; preds = %3
  call void @llvm.lifetime.start.p0(i64 8, ptr %8) #16
  %14 = load ptr, ptr %5, align 8, !tbaa !3
  %15 = call noundef nonnull align 8 dereferenceable(8) ptr @_ZN4lean10const_nameERKNS_4exprE(ptr noundef nonnull align 8 dereferenceable(8) %14)
  store ptr %15, ptr %8, align 8, !tbaa !8
  %16 = load ptr, ptr %8, align 8, !tbaa !8
  %17 = call noundef zeroext i1 @_ZN4lean16is_internal_nameERKNS_4nameE(ptr noundef nonnull align 8 dereferenceable(8) %16)
  br i1 %17, label %18, label %29

18:                                               ; preds = %13
  %19 = load ptr, ptr %8, align 8, !tbaa !8
  %20 = call noundef zeroext i1 @_ZNK4lean4name9is_atomicEv(ptr noundef nonnull align 8 dereferenceable(8) %19)
  br i1 %20, label %29, label %21

21:                                               ; preds = %18
  %22 = load ptr, ptr %8, align 8, !tbaa !8
  %23 = call noundef zeroext i1 @_ZNK4lean4name10is_numeralEv(ptr noundef nonnull align 8 dereferenceable(8) %22)
  br i1 %23, label %24, label %29

24:                                               ; preds = %21
  %25 = load ptr, ptr %8, align 8, !tbaa !8
  %26 = call noundef nonnull align 8 dereferenceable(8) ptr @_ZNK4lean4name10get_prefixEv(ptr noundef nonnull align 8 dereferenceable(8) %25)
  %27 = load ptr, ptr %6, align 8, !tbaa !8
  %28 = call noundef zeroext i1 @_ZN4leanneERKNS_4nameES2_(ptr noundef nonnull align 8 dereferenceable(8) %26, ptr noundef nonnull align 8 dereferenceable(8) %27)
  br i1 %28, label %29, label %30

29:                                               ; preds = %24, %21, %18, %13
  store i1 false, ptr %4, align 1
  store i32 1, ptr %9, align 4
  br label %36

30:                                               ; preds = %24
  %31 = load ptr, ptr %8, align 8, !tbaa !8
  %32 = call noundef nonnull align 8 dereferenceable(8) ptr @_ZNK4lean4name11get_numeralEv(ptr noundef nonnull align 8 dereferenceable(8) %31)
  %33 = call noundef i64 @_ZNK4lean3nat15get_small_valueEv(ptr noundef nonnull align 8 dereferenceable(8) %32)
  %34 = trunc i64 %33 to i32
  %35 = load ptr, ptr %7, align 8, !tbaa !14
  store i32 %34, ptr %35, align 4, !tbaa !10
  store i1 true, ptr %4, align 1
  store i32 1, ptr %9, align 4
  br label %36

36:                                               ; preds = %30, %29
  call void @llvm.lifetime.end.p0(i64 8, ptr %8) #16
  br label %37

37:                                               ; preds = %36, %12
  %38 = load i1, ptr %4, align 1
  ret i1 %38
}

; Function Attrs: mustprogress uwtable
define hidden noundef zeroext i1 @_ZN4lean13is_llnf_unboxERKNS_4exprERj(ptr noundef nonnull align 8 dereferenceable(8) %0, ptr noundef nonnull align 4 dereferenceable(4) %1) #0 {
  %3 = alloca ptr, align 8
  %4 = alloca ptr, align 8
  store ptr %0, ptr %3, align 8, !tbaa !3
  store ptr %1, ptr %4, align 8, !tbaa !14
  %5 = load ptr, ptr %3, align 8, !tbaa !3
  %6 = load ptr, ptr @_ZN4leanL7g_unboxE, align 8, !tbaa !8
  %7 = load ptr, ptr %4, align 8, !tbaa !14
  %8 = call noundef zeroext i1 @_ZN4leanL23is_llnf_unary_primitiveERKNS_4exprERKNS_4nameERj(ptr noundef nonnull align 8 dereferenceable(8) %5, ptr noundef nonnull align 8 dereferenceable(8) %6, ptr noundef nonnull align 4 dereferenceable(4) %7)
  ret i1 %8
}