; Function Attrs: mustprogress uwtable
define hidden noundef zeroext i1 @_ZN4lean13is_llnf_unboxERKNS_4exprERj(ptr noundef nonnull readonly align 8 captures(none) dereferenceable(8) %0, ptr noundef nonnull writeonly align 4 captures(none) dereferenceable(4) %1) local_unnamed_addr #0 {
  %3 = load ptr, ptr @_ZN4leanL7g_unboxE, align 8, !tbaa !19
  %.val = load ptr, ptr %0, align 8, !tbaa !8
  %4 = getelementptr i8, ptr %.val, i64 4
  %.val.i.i.i.i.i.i = load i32, ptr %4, align 4
  %.mask.i.i.i = and i32 %.val.i.i.i.i.i.i, -16777216
  %5 = icmp eq i32 %.mask.i.i.i, 67108864
  br i1 %5, label %6, label %_ZN4leanL23is_llnf_unary_primitiveERKNS_4exprERKNS_4nameERj.exit

6:                                                ; preds = %2
  %7 = getelementptr inbounds nuw i8, ptr %.val, i64 8
  %8 = tail call noundef zeroext i1 @_ZN4lean16is_internal_nameERKNS_4nameE(ptr noundef nonnull align 8 dereferenceable(8) %7)
  br i1 %8, label %9, label %_ZN4leanL23is_llnf_unary_primitiveERKNS_4exprERKNS_4nameERj.exit

9:                                                ; preds = %6
  %10 = load ptr, ptr %7, align 8, !tbaa !8
  %11 = ptrtoint ptr %10 to i64
  %12 = and i64 %11, 1
  %.not.i.i.i.i.i.i.i = icmp eq i64 %12, 0
  br i1 %.not.i.i.i.i.i.i.i, label %16, label %13

13:                                               ; preds = %9
  %14 = lshr i64 %11, 1
  %15 = trunc i64 %14 to i32
  br label %_ZNK4lean4name12is_anonymousEv.exit.i.i

16:                                               ; preds = %9
  %17 = getelementptr i8, ptr %10, i64 4
  %.val.i.i.i.i.i.i.i = load i32, ptr %17, align 4
  %18 = lshr i32 %.val.i.i.i.i.i.i.i, 24
  br label %_ZNK4lean4name12is_anonymousEv.exit.i.i

_ZNK4lean4name12is_anonymousEv.exit.i.i:          ; preds = %16, %13
  %.0.i.i.i.i.i.i.i = phi i32 [ %15, %13 ], [ %18, %16 ]
  %19 = icmp eq i32 %.0.i.i.i.i.i.i.i, 0
  br i1 %19, label %_ZN4leanL23is_llnf_unary_primitiveERKNS_4exprERKNS_4nameERj.exit, label %20

20:                                               ; preds = %_ZNK4lean4name12is_anonymousEv.exit.i.i
  %21 = getelementptr inbounds nuw i8, ptr %10, i64 8
  %22 = load ptr, ptr %21, align 8, !tbaa !17
  %23 = ptrtoint ptr %22 to i64
  %24 = and i64 %23, 1
  %.not.i.i.i.i.i = icmp eq i64 %24, 0
  br i1 %.not.i.i.i.i.i, label %28, label %25

25:                                               ; preds = %20
  %26 = lshr i64 %23, 1
  %27 = trunc i64 %26 to i32
  br label %_ZNK4lean4name9is_atomicEv.exit.i

28:                                               ; preds = %20
  %29 = getelementptr i8, ptr %22, i64 4
  %.val.i.i.i.i.i = load i32, ptr %29, align 4
  %30 = lshr i32 %.val.i.i.i.i.i, 24
  br label %_ZNK4lean4name9is_atomicEv.exit.i

_ZNK4lean4name9is_atomicEv.exit.i:                ; preds = %28, %25
  %.0.i.i.i.i.i = phi i32 [ %27, %25 ], [ %30, %28 ]
  %31 = icmp eq i32 %.0.i.i.i.i.i, 0
  br i1 %31, label %_ZN4leanL23is_llnf_unary_primitiveERKNS_4exprERKNS_4nameERj.exit, label %32

32:                                               ; preds = %_ZNK4lean4name9is_atomicEv.exit.i
  br i1 %.not.i.i.i.i.i.i.i, label %_ZNK4lean4name10is_numeralEv.exit.i, label %_ZNK4lean4name10is_numeralEv.exit.thread.i

_ZNK4lean4name10is_numeralEv.exit.i:              ; preds = %32
  %33 = getelementptr i8, ptr %10, i64 4
  %.val.i.i.i.i.i10.i = load i32, ptr %33, align 4
  %.mask.i = and i32 %.val.i.i.i.i.i10.i, -16777216
  %34 = icmp eq i32 %.mask.i, 33554432
  br i1 %34, label %_ZNK4lean4name10get_prefixEv.exit.i, label %_ZN4leanL23is_llnf_unary_primitiveERKNS_4exprERKNS_4nameERj.exit

_ZNK4lean4name10is_numeralEv.exit.thread.i:       ; preds = %32
  %35 = and i64 %11, 8589934590
  %36 = icmp eq i64 %35, 4
  br i1 %36, label %_ZNK4lean4name10get_prefixEv.exit.i, label %_ZN4leanL23is_llnf_unary_primitiveERKNS_4exprERKNS_4nameERj.exit

_ZNK4lean4name10get_prefixEv.exit.i:              ; preds = %_ZNK4lean4name10is_numeralEv.exit.thread.i, %_ZNK4lean4name10is_numeralEv.exit.i
  %37 = load ptr, ptr %3, align 8, !tbaa !8
  %38 = tail call zeroext i8 @lean_name_eq(ptr noundef %22, ptr noundef %37)
  %.not.i.i = icmp eq i8 %38, 0
  br i1 %.not.i.i, label %_ZN4leanL23is_llnf_unary_primitiveERKNS_4exprERKNS_4nameERj.exit, label %39

39:                                               ; preds = %_ZNK4lean4name10get_prefixEv.exit.i
  %40 = load ptr, ptr %7, align 8, !tbaa !8
  %41 = getelementptr inbounds nuw i8, ptr %40, i64 16
  %42 = load ptr, ptr %41, align 8, !tbaa !8
  %43 = ptrtoint ptr %42 to i64
  %44 = lshr i64 %43, 1
  %45 = trunc i64 %44 to i32
  store i32 %45, ptr %1, align 4, !tbaa !18
  br label %_ZN4leanL23is_llnf_unary_primitiveERKNS_4exprERKNS_4nameERj.exit

_ZN4leanL23is_llnf_unary_primitiveERKNS_4exprERKNS_4nameERj.exit: ; preds = %2, %6, %_ZNK4lean4name12is_anonymousEv.exit.i.i, %_ZNK4lean4name9is_atomicEv.exit.i, %_ZNK4lean4name10is_numeralEv.exit.i, %_ZNK4lean4name10is_numeralEv.exit.thread.i, %_ZNK4lean4name10get_prefixEv.exit.i, %39
  %.0.i = phi i1 [ false, %2 ], [ true, %39 ], [ false, %_ZNK4lean4name10get_prefixEv.exit.i ], [ false, %_ZNK4lean4name10is_numeralEv.exit.i ], [ false, %_ZNK4lean4name9is_atomicEv.exit.i ], [ false, %6 ], [ false, %_ZNK4lean4name10is_numeralEv.exit.thread.i ], [ false, %_ZNK4lean4name12is_anonymousEv.exit.i.i ]
  ret i1 %.0.i
}